; ModuleID = '32/2216.c'
source_filename = "32/2216.c"
target datalayout = "e-m:e-p270:32:32-p271:32:32-p272:64:64-i64:64-f80:128-n8:16:32:64-S128"
target triple = "x86_64-pc-linux-gnu"

@.str = private unnamed_addr constant [3 x i8] c"%d\00", align 1
@.str.1 = private unnamed_addr constant [6 x i8] c"%s %s\00", align 1
@.str.2 = private unnamed_addr constant [4 x i8] c"%s\0A\00", align 1

; Function Attrs: noinline nounwind uwtable
define dso_local void @main() #0 {
  %1 = alloca i32, align 4
  %2 = alloca i32, align 4
  %3 = alloca i32, align 4
  %4 = alloca i32, align 4
  %5 = alloca i32, align 4
  %6 = alloca i32, align 4
  %7 = alloca [101 x i8], align 16
  %8 = alloca [101 x i8], align 16
  %9 = alloca [101 x i8], align 16
  %10 = alloca [100 x [101 x i8]], align 16
  %11 = call i32 (i8*, ...) @__isoc99_scanf(i8* getelementptr inbounds ([3 x i8], [3 x i8]* @.str, i64 0, i64 0), i32* %1)
  store i32 0, i32* %2, align 4
  br label %12

12:                                               ; preds = %139, %0
  %13 = load i32, i32* %2, align 4
  %14 = load i32, i32* %1, align 4
  %15 = icmp slt i32 %13, %14
  br i1 %15, label %16, label %142

16:                                               ; preds = %12
  %17 = getelementptr inbounds [101 x i8], [101 x i8]* %7, i64 0, i64 0
  %18 = getelementptr inbounds [101 x i8], [101 x i8]* %8, i64 0, i64 0
  %19 = call i32 (i8*, ...) @__isoc99_scanf(i8* getelementptr inbounds ([6 x i8], [6 x i8]* @.str.1, i64 0, i64 0), i8* %17, i8* %18)
  %20 = getelementptr inbounds [101 x i8], [101 x i8]* %7, i64 0, i64 0
  %21 = call i64 @strlen(i8* %20) #4
  %22 = trunc i64 %21 to i32
  store i32 %22, i32* %5, align 4
  %23 = getelementptr inbounds [101 x i8], [101 x i8]* %8, i64 0, i64 0
  %24 = call i64 @strlen(i8* %23) #4
  %25 = trunc i64 %24 to i32
  store i32 %25, i32* %6, align 4
  store i32 0, i32* %3, align 4
  br label %26

26:                                               ; preds = %36, %16
  %27 = load i32, i32* %3, align 4
  %28 = load i32, i32* %5, align 4
  %29 = load i32, i32* %6, align 4
  %30 = sub nsw i32 %28, %29
  %31 = icmp slt i32 %27, %30
  br i1 %31, label %32, label %39

32:                                               ; preds = %26
  %33 = load i32, i32* %3, align 4
  %34 = sext i32 %33 to i64
  %35 = getelementptr inbounds [101 x i8], [101 x i8]* %9, i64 0, i64 %34
  store i8 48, i8* %35, align 1
  br label %36

36:                                               ; preds = %32
  %37 = load i32, i32* %3, align 4
  %38 = add nsw i32 %37, 1
  store i32 %38, i32* %3, align 4
  br label %26

39:                                               ; preds = %26
  %40 = load i32, i32* %3, align 4
  %41 = sext i32 %40 to i64
  %42 = getelementptr inbounds [101 x i8], [101 x i8]* %9, i64 0, i64 %41
  store i8 0, i8* %42, align 1
  %43 = getelementptr inbounds [101 x i8], [101 x i8]* %9, i64 0, i64 0
  %44 = getelementptr inbounds [101 x i8], [101 x i8]* %8, i64 0, i64 0
  %45 = call i8* @strcat(i8* %43, i8* %44) #5
  %46 = load i32, i32* %2, align 4
  %47 = sext i32 %46 to i64
  %48 = getelementptr inbounds [100 x [101 x i8]], [100 x [101 x i8]]* %10, i64 0, i64 %47
  %49 = load i32, i32* %5, align 4
  %50 = sext i32 %49 to i64
  %51 = getelementptr inbounds [101 x i8], [101 x i8]* %48, i64 0, i64 %50
  store i8 0, i8* %51, align 1
  %52 = load i32, i32* %5, align 4
  %53 = sub nsw i32 %52, 1
  store i32 %53, i32* %3, align 4
  br label %54

54:                                               ; preds = %135, %39
  %55 = load i32, i32* %3, align 4
  %56 = icmp sge i32 %55, 0
  br i1 %56, label %57, label %138

57:                                               ; preds = %54
  %58 = load i32, i32* %3, align 4
  %59 = sext i32 %58 to i64
  %60 = getelementptr inbounds [101 x i8], [101 x i8]* %7, i64 0, i64 %59
  %61 = load i8, i8* %60, align 1
  %62 = sext i8 %61 to i32
  %63 = load i32, i32* %3, align 4
  %64 = sext i32 %63 to i64
  %65 = getelementptr inbounds [101 x i8], [101 x i8]* %9, i64 0, i64 %64
  %66 = load i8, i8* %65, align 1
  %67 = sext i8 %66 to i32
  %68 = icmp sge i32 %62, %67
  br i1 %68, label %69, label %89

69:                                               ; preds = %57
  %70 = load i32, i32* %3, align 4
  %71 = sext i32 %70 to i64
  %72 = getelementptr inbounds [101 x i8], [101 x i8]* %7, i64 0, i64 %71
  %73 = load i8, i8* %72, align 1
  %74 = sext i8 %73 to i32
  %75 = load i32, i32* %3, align 4
  %76 = sext i32 %75 to i64
  %77 = getelementptr inbounds [101 x i8], [101 x i8]* %9, i64 0, i64 %76
  %78 = load i8, i8* %77, align 1
  %79 = sext i8 %78 to i32
  %80 = sub nsw i32 %74, %79
  %81 = add nsw i32 %80, 48
  %82 = trunc i32 %81 to i8
  %83 = load i32, i32* %2, align 4
  %84 = sext i32 %83 to i64
  %85 = getelementptr inbounds [100 x [101 x i8]], [100 x [101 x i8]]* %10, i64 0, i64 %84
  %86 = load i32, i32* %3, align 4
  %87 = sext i32 %86 to i64
  %88 = getelementptr inbounds [101 x i8], [101 x i8]* %85, i64 0, i64 %87
  store i8 %82, i8* %88, align 1
  br label %134

89:                                               ; preds = %57
  %90 = load i32, i32* %3, align 4
  %91 = sext i32 %90 to i64
  %92 = getelementptr inbounds [101 x i8], [101 x i8]* %7, i64 0, i64 %91
  %93 = load i8, i8* %92, align 1
  %94 = sext i8 %93 to i32
  %95 = add nsw i32 %94, 10
  %96 = load i32, i32* %3, align 4
  %97 = sext i32 %96 to i64
  %98 = getelementptr inbounds [101 x i8], [101 x i8]* %9, i64 0, i64 %97
  %99 = load i8, i8* %98, align 1
  %100 = sext i8 %99 to i32
  %101 = sub nsw i32 %95, %100
  %102 = add nsw i32 %101, 48
  %103 = trunc i32 %102 to i8
  %104 = load i32, i32* %2, align 4
  %105 = sext i32 %104 to i64
  %106 = getelementptr inbounds [100 x [101 x i8]], [100 x [101 x i8]]* %10, i64 0, i64 %105
  %107 = load i32, i32* %3, align 4
  %108 = sext i32 %107 to i64
  %109 = getelementptr inbounds [101 x i8], [101 x i8]* %106, i64 0, i64 %108
  store i8 %103, i8* %109, align 1
  %110 = load i32, i32* %3, align 4
  %111 = sub nsw i32 %110, 1
  store i32 %111, i32* %4, align 4
  br label %112

112:                                              ; preds = %130, %89
  %113 = load i32, i32* %4, align 4
  %114 = sext i32 %113 to i64
  %115 = getelementptr inbounds [101 x i8], [101 x i8]* %7, i64 0, i64 %114
  %116 = load i8, i8* %115, align 1
  %117 = sext i8 %116 to i32
  %118 = icmp sgt i32 %117, 48
  br i1 %118, label %119, label %125

119:                                              ; preds = %112
  %120 = load i32, i32* %4, align 4
  %121 = sext i32 %120 to i64
  %122 = getelementptr inbounds [101 x i8], [101 x i8]* %7, i64 0, i64 %121
  %123 = load i8, i8* %122, align 1
  %124 = add i8 %123, -1
  store i8 %124, i8* %122, align 1
  br label %133

125:                                              ; preds = %112
  %126 = load i32, i32* %4, align 4
  %127 = sext i32 %126 to i64
  %128 = getelementptr inbounds [101 x i8], [101 x i8]* %7, i64 0, i64 %127
  store i8 57, i8* %128, align 1
  br label %129

129:                                              ; preds = %125
  br label %130

130:                                              ; preds = %129
  %131 = load i32, i32* %4, align 4
  %132 = add nsw i32 %131, -1
  store i32 %132, i32* %4, align 4
  br label %112

133:                                              ; preds = %119
  br label %134

134:                                              ; preds = %133, %69
  br label %135

135:                                              ; preds = %134
  %136 = load i32, i32* %3, align 4
  %137 = add nsw i32 %136, -1
  store i32 %137, i32* %3, align 4
  br label %54

138:                                              ; preds = %54
  br label %139

139:                                              ; preds = %138
  %140 = load i32, i32* %2, align 4
  %141 = add nsw i32 %140, 1
  store i32 %141, i32* %2, align 4
  br label %12

142:                                              ; preds = %12
  store i32 0, i32* %2, align 4
  br label %143

143:                                              ; preds = %153, %142
  %144 = load i32, i32* %2, align 4
  %145 = load i32, i32* %1, align 4
  %146 = icmp slt i32 %144, %145
  br i1 %146, label %147, label %156

147:                                              ; preds = %143
  %148 = load i32, i32* %2, align 4
  %149 = sext i32 %148 to i64
  %150 = getelementptr inbounds [100 x [101 x i8]], [100 x [101 x i8]]* %10, i64 0, i64 %149
  %151 = getelementptr inbounds [101 x i8], [101 x i8]* %150, i64 0, i64 0
  %152 = call i32 (i8*, ...) @printf(i8* getelementptr inbounds ([4 x i8], [4 x i8]* @.str.2, i64 0, i64 0), i8* %151)
  br label %153

153:                                              ; preds = %147
  %154 = load i32, i32* %2, align 4
  %155 = add nsw i32 %154, 1
  store i32 %155, i32* %2, align 4
  br label %143

156:                                              ; preds = %143
  ret void
}

declare dso_local i32 @__isoc99_scanf(i8*, ...) #1

; Function Attrs: nounwind readonly
declare dso_local i64 @strlen(i8*) #2

; Function Attrs: nounwind
declare dso_local i8* @strcat(i8*, i8*) #3

declare dso_local i32 @printf(i8*, ...) #1


!llvm.module.flags = !{!0}
!llvm.ident = !{!1}

!0 = !{i32 1, !"wchar_size", i32 4}
!1 = !{!"clang version 10.0.0-4ubuntu1 "}
